; Function Attrs: nounwind uwtable
define internal range(i32 -2147483648, 1) i32 @query_formats(ptr readnone captures(none) %0, ptr noundef readonly captures(none) %1, ptr noundef readonly captures(none) %2) #0 {
  %4 = tail call ptr @ff_make_format_list(ptr noundef nonnull @query_formats.in_fmts) #13
  %5 = load ptr, ptr %1, align 8, !tbaa !27
  %6 = tail call i32 @ff_formats_ref(ptr noundef %4, ptr noundef %5) #13
  %7 = icmp slt i32 %6, 0
  br i1 %7, label %12, label %8

8:                                                ; preds = %3
  %9 = tail call ptr @ff_make_format_list(ptr noundef nonnull @query_formats.out_fmts) #13
  %10 = load ptr, ptr %2, align 8, !tbaa !27
  %11 = tail call i32 @ff_formats_ref(ptr noundef %9, ptr noundef %10) #13
  %. = tail call i32 @llvm.smin.i32(i32 %11, i32 0)
  br label %12

12:                                               ; preds = %8, %3
  %.0 = phi i32 [ %6, %3 ], [ %., %8 ]
  ret i32 %.0
}